; Function Attrs: mustprogress nounwind uwtable
define dso_local noundef zeroext i1 @_ZN4node20SigintWatchdogHelper4StopEv(ptr noundef nonnull align 8 dereferenceable(162) %this) local_unnamed_addr #3 align 2 {
entry:
  %mutex_ = getelementptr inbounds i8, ptr %this, i64 8
  tail call void @uv_mutex_lock(ptr noundef nonnull %mutex_) #15
  %list_mutex_ = getelementptr inbounds i8, ptr %this, i64 48
  tail call void @uv_mutex_lock(ptr noundef nonnull %list_mutex_) #15
  %has_pending_signal_ = getelementptr inbounds i8, ptr %this, i64 112
  %0 = load i8, ptr %has_pending_signal_, align 8
  %1 = load i32, ptr %this, align 8
  %dec = add nsw i32 %1, -1
  store i32 %dec, ptr %this, align 8
  %cmp = icmp slt i32 %1, 2
  br i1 %cmp, label %if.end, label %cleanup

if.end:                                           ; preds = %entry
  %stopping_ = getelementptr inbounds i8, ptr %this, i64 161
  store i8 1, ptr %stopping_, align 1
  %watchdogs_ = getelementptr inbounds i8, ptr %this, i64 88
  %2 = load ptr, ptr %watchdogs_, align 8
  %_M_finish.i.i = getelementptr inbounds i8, ptr %this, i64 96
  %3 = load ptr, ptr %_M_finish.i.i, align 8
  %tobool.not.i.i = icmp eq ptr %3, %2
  br i1 %tobool.not.i.i, label %cleanup.cont, label %if.then.i.i

if.then.i.i:                                      ; preds = %if.end
  store ptr %2, ptr %_M_finish.i.i, align 8
  br label %cleanup.cont

cleanup:                                          ; preds = %entry
  store i8 0, ptr %has_pending_signal_, align 8
  tail call void @uv_mutex_unlock(ptr noundef nonnull %list_mutex_) #15
  br label %cleanup23

cleanup.cont:                                     ; preds = %if.then.i.i, %if.end
  tail call void @uv_mutex_unlock(ptr noundef nonnull %list_mutex_) #15
  %has_running_thread_ = getelementptr inbounds i8, ptr %this, i64 160
  %4 = load i8, ptr %has_running_thread_, align 8
  %5 = and i8 %4, 1
  %tobool4.not = icmp eq i8 %5, 0
  br i1 %tobool4.not, label %if.then5, label %if.end8

if.then5:                                         ; preds = %cleanup.cont
  store i8 0, ptr %has_pending_signal_, align 8
  br label %cleanup23

if.end8:                                          ; preds = %cleanup.cont
  %sem_ = getelementptr inbounds i8, ptr %this, i64 128
  tail call void @uv_sem_post(ptr noundef nonnull %sem_) #15
  %thread_ = getelementptr inbounds i8, ptr %this, i64 120
  %6 = load i64, ptr %thread_, align 8
  %call = tail call i32 @pthread_join(i64 noundef %6, ptr noundef null) #15
  %cmp9.not = icmp eq i32 %call, 0
  br i1 %cmp9.not, label %do.end16, label %do.body13

do.body13:                                        ; preds = %if.end8
  tail call void @_ZN4node6AssertERKNS_13AssertionInfoE(ptr noundef nonnull align 8 dereferenceable(24) @_ZZN4node20SigintWatchdogHelper4StopEvE4args) #15
  tail call void @abort() #16
  unreachable

do.end16:                                         ; preds = %if.end8
  store i8 0, ptr %has_running_thread_, align 8
  tail call void @_ZN4node21RegisterSignalHandlerEiPFviP9siginfo_tPvEb(i32 noundef 2, ptr noundef nonnull @_ZN4node10SignalExitEiP9siginfo_tPv, i1 noundef zeroext true) #15
  %7 = load i8, ptr %has_pending_signal_, align 8
  store i8 0, ptr %has_pending_signal_, align 8
  br label %cleanup23

cleanup23:                                        ; preds = %cleanup, %do.end16, %if.then5
  %retval.1.in.in = phi i8 [ %7, %do.end16 ], [ %0, %if.then5 ], [ %0, %cleanup ]
  %retval.1.in = and i8 %retval.1.in.in, 1
  %retval.1 = icmp ne i8 %retval.1.in, 0
  tail call void @uv_mutex_unlock(ptr noundef nonnull %mutex_) #15
  ret i1 %retval.1
}